target datalayout = "e-m:e-p270:32:32-p271:32:32-p272:64:64-i64:64-i128:128-f80:128-n8:16:32:64-S128"
target triple = "x86_64-pc-linux-gnu"

%struct.MultirangeType = type { i32, i32, i32 }
%struct.RangeBound = type { i64, i8, i8, i8 }

; Function Attrs: nounwind uwtable
define internal zeroext i1 @multirange_bsearch_match(ptr noundef %0, ptr noundef %1, ptr noundef %2, ptr noundef %3) #0 {
  %5 = alloca i1, align 1
  %6 = alloca ptr, align 8
  %7 = alloca ptr, align 8
  %8 = alloca ptr, align 8
  %9 = alloca ptr, align 8
  %10 = alloca i32, align 4
  %11 = alloca i32, align 4
  %12 = alloca i32, align 4
  %13 = alloca i32, align 4
  %14 = alloca i8, align 1
  %15 = alloca %struct.RangeBound, align 8
  %16 = alloca %struct.RangeBound, align 8
  %17 = alloca i32, align 4
  store ptr %0, ptr %6, align 8
  store ptr %1, ptr %7, align 8
  store ptr %2, ptr %8, align 8
  store ptr %3, ptr %9, align 8
  call void @llvm.lifetime.start.p0(i64 4, ptr %10) #9
  call void @llvm.lifetime.start.p0(i64 4, ptr %11) #9
  call void @llvm.lifetime.start.p0(i64 4, ptr %12) #9
  call void @llvm.lifetime.start.p0(i64 4, ptr %13) #9
  call void @llvm.lifetime.start.p0(i64 1, ptr %14) #9
  store i8 0, ptr %14, align 1
  store i32 0, ptr %10, align 4
  %18 = load ptr, ptr %7, align 8
  %19 = getelementptr inbounds nuw %struct.MultirangeType, ptr %18, i32 0, i32 2
  %20 = load i32, ptr %19, align 4
  store i32 %20, ptr %11, align 4
  br label %21

21:                                               ; preds = %54, %4
  %22 = load i32, ptr %10, align 4
  %23 = load i32, ptr %11, align 4
  %24 = icmp ult i32 %22, %23
  br i1 %24, label %25, label %55

25:                                               ; preds = %21
  call void @llvm.lifetime.start.p0(i64 16, ptr %15) #9
  call void @llvm.lifetime.start.p0(i64 16, ptr %16) #9
  %26 = load i32, ptr %10, align 4
  %27 = load i32, ptr %11, align 4
  %28 = add i32 %26, %27
  %29 = udiv i32 %28, 2
  store i32 %29, ptr %12, align 4
  %30 = load ptr, ptr %6, align 8
  %31 = load ptr, ptr %7, align 8
  %32 = load i32, ptr %12, align 4
  call void @multirange_get_bounds(ptr noundef %30, ptr noundef %31, i32 noundef %32, ptr noundef %15, ptr noundef %16)
  %33 = load ptr, ptr %9, align 8
  %34 = load ptr, ptr %6, align 8
  %35 = load ptr, ptr %8, align 8
  %36 = call i32 %33(ptr noundef %34, ptr noundef %15, ptr noundef %16, ptr noundef %35, ptr noundef %14)
  store i32 %36, ptr %13, align 4
  %37 = load i32, ptr %13, align 4
  %38 = icmp slt i32 %37, 0
  br i1 %38, label %39, label %41

39:                                               ; preds = %25
  %40 = load i32, ptr %12, align 4
  store i32 %40, ptr %11, align 4
  br label %51

41:                                               ; preds = %25
  %42 = load i32, ptr %13, align 4
  %43 = icmp sgt i32 %42, 0
  br i1 %43, label %44, label %47

44:                                               ; preds = %41
  %45 = load i32, ptr %12, align 4
  %46 = add i32 %45, 1
  store i32 %46, ptr %10, align 4
  br label %50

47:                                               ; preds = %41
  %48 = load i8, ptr %14, align 1, !range !16, !noundef !17
  %49 = trunc i8 %48 to i1
  store i1 %49, ptr %5, align 1
  store i32 1, ptr %17, align 4
  br label %52

50:                                               ; preds = %44
  br label %51

51:                                               ; preds = %50, %39
  store i32 0, ptr %17, align 4
  br label %52

52:                                               ; preds = %51, %47
  call void @llvm.lifetime.end.p0(i64 16, ptr %16) #9
  call void @llvm.lifetime.end.p0(i64 16, ptr %15) #9
  %53 = load i32, ptr %17, align 4
  switch i32 %53, label %56 [
    i32 0, label %54
  ]

54:                                               ; preds = %52
  br label %21, !llvm.loop !27

55:                                               ; preds = %21
  store i1 false, ptr %5, align 1
  store i32 1, ptr %17, align 4
  br label %56

56:                                               ; preds = %55, %52
  call void @llvm.lifetime.end.p0(i64 1, ptr %14) #9
  call void @llvm.lifetime.end.p0(i64 4, ptr %13) #9
  call void @llvm.lifetime.end.p0(i64 4, ptr %12) #9
  call void @llvm.lifetime.end.p0(i64 4, ptr %11) #9
  call void @llvm.lifetime.end.p0(i64 4, ptr %10) #9
  %57 = load i1, ptr %5, align 1
  ret i1 %57
}

; Function Attrs: nounwind uwtable
define dso_local zeroext i1 @multirange_contains_range_internal(ptr noundef %0, ptr noundef %1, ptr noundef %2) #0 {
  %4 = alloca i1, align 1
  %5 = alloca ptr, align 8
  %6 = alloca ptr, align 8
  %7 = alloca ptr, align 8
  %8 = alloca [2 x %struct.RangeBound], align 16
  %9 = alloca i8, align 1
  %10 = alloca i32, align 4
  store ptr %0, ptr %5, align 8
  store ptr %1, ptr %6, align 8
  store ptr %2, ptr %7, align 8
  call void @llvm.lifetime.start.p0(i64 32, ptr %8) #9
  call void @llvm.lifetime.start.p0(i64 1, ptr %9) #9
  %11 = load ptr, ptr %7, align 8
  %12 = call signext i8 @range_get_flags(ptr noundef %11)
  %13 = sext i8 %12 to i32
  %14 = and i32 %13, 1
  %15 = icmp ne i32 %14, 0
  br i1 %15, label %16, label %17

16:                                               ; preds = %3
  store i1 true, ptr %4, align 1
  store i32 1, ptr %10, align 4
  br label %32

17:                                               ; preds = %3
  %18 = load ptr, ptr %6, align 8
  %19 = getelementptr inbounds nuw %struct.MultirangeType, ptr %18, i32 0, i32 2
  %20 = load i32, ptr %19, align 4
  %21 = icmp eq i32 %20, 0
  br i1 %21, label %22, label %23

22:                                               ; preds = %17
  store i1 false, ptr %4, align 1
  store i32 1, ptr %10, align 4
  br label %32

23:                                               ; preds = %17
  %24 = load ptr, ptr %5, align 8
  %25 = load ptr, ptr %7, align 8
  %26 = getelementptr inbounds [2 x %struct.RangeBound], ptr %8, i64 0, i64 0
  %27 = getelementptr inbounds [2 x %struct.RangeBound], ptr %8, i64 0, i64 1
  call void @range_deserialize(ptr noundef %24, ptr noundef %25, ptr noundef %26, ptr noundef %27, ptr noundef %9)
  %28 = load ptr, ptr %5, align 8
  %29 = load ptr, ptr %6, align 8
  %30 = getelementptr inbounds [2 x %struct.RangeBound], ptr %8, i64 0, i64 0
  %31 = call zeroext i1 @multirange_bsearch_match(ptr noundef %28, ptr noundef %29, ptr noundef %30, ptr noundef @multirange_range_contains_bsearch_comparison)
  store i1 %31, ptr %4, align 1
  store i32 1, ptr %10, align 4
  br label %32

32:                                               ; preds = %23, %22, %16
  call void @llvm.lifetime.end.p0(i64 1, ptr %9) #9
  call void @llvm.lifetime.end.p0(i64 32, ptr %8) #9
  %33 = load i1, ptr %4, align 1
  ret i1 %33
}