; Function Attrs: nounwind uwtable
define dso_local noundef zeroext i1 @multirange_contains_range_internal(ptr noundef %0, ptr noundef %1, ptr noundef %2) local_unnamed_addr #0 {
  %4 = alloca %struct.RangeBound, align 8
  %5 = alloca %struct.RangeBound, align 8
  %6 = alloca [2 x %struct.RangeBound], align 16
  %7 = alloca i8, align 1
  call void @llvm.lifetime.start.p0(i64 32, ptr nonnull %6) #11
  call void @llvm.lifetime.start.p0(i64 1, ptr nonnull %7) #11
  %8 = tail call signext i8 @range_get_flags(ptr noundef %2) #11
  %9 = and i8 %8, 1
  %.not = icmp eq i8 %9, 0
  br i1 %.not, label %10, label %multirange_bsearch_match.exit

10:                                               ; preds = %3
  %11 = getelementptr inbounds nuw i8, ptr %1, i64 8
  %12 = load i32, ptr %11, align 4
  %13 = icmp eq i32 %12, 0
  br i1 %13, label %multirange_bsearch_match.exit, label %14

14:                                               ; preds = %10
  %15 = getelementptr inbounds nuw i8, ptr %6, i64 16
  call void @range_deserialize(ptr noundef %0, ptr noundef %2, ptr noundef nonnull %6, ptr noundef nonnull %15, ptr noundef nonnull %7) #11
  %16 = load i32, ptr %11, align 4
  %.not30.i = icmp eq i32 %16, 0
  br i1 %.not30.i, label %multirange_bsearch_match.exit, label %.lr.ph.i

.lr.ph.i:                                         ; preds = %14, %multirange_range_contains_bsearch_comparison.exit
  %.01729.i = phi i32 [ %.219.i, %multirange_range_contains_bsearch_comparison.exit ], [ 0, %14 ]
  %.02028.i = phi i32 [ %.222.i, %multirange_range_contains_bsearch_comparison.exit ], [ %16, %14 ]
  call void @llvm.lifetime.start.p0(i64 16, ptr nonnull %4) #11
  call void @llvm.lifetime.start.p0(i64 16, ptr nonnull %5) #11
  %17 = add i32 %.02028.i, %.01729.i
  %18 = lshr i32 %17, 1
  call void @multirange_get_bounds(ptr noundef %0, ptr noundef %1, i32 noundef %18, ptr noundef nonnull %4, ptr noundef nonnull %5)
  %19 = call i32 @range_cmp_bounds(ptr noundef %0, ptr noundef nonnull %15, ptr noundef nonnull %4) #11
  %20 = icmp slt i32 %19, 0
  br i1 %20, label %multirange_range_contains_bsearch_comparison.exit, label %21

21:                                               ; preds = %.lr.ph.i
  %22 = call i32 @range_cmp_bounds(ptr noundef %0, ptr noundef nonnull %6, ptr noundef nonnull %5) #11
  %23 = icmp sgt i32 %22, 0
  br i1 %23, label %31, label %24

24:                                               ; preds = %21
  %25 = call i32 @range_cmp_bounds(ptr noundef %0, ptr noundef nonnull %4, ptr noundef nonnull %6) #11
  %26 = icmp slt i32 %25, 1
  br i1 %26, label %27, label %30

27:                                               ; preds = %24
  %28 = call i32 @range_cmp_bounds(ptr noundef %0, ptr noundef nonnull %5, ptr noundef nonnull %15) #11
  %29 = icmp sgt i32 %28, -1
  br i1 %29, label %.thread.i, label %30

30:                                               ; preds = %27, %24
  br label %.thread.i

31:                                               ; preds = %21
  %32 = add nuw i32 %18, 1
  br label %multirange_range_contains_bsearch_comparison.exit

.thread.i:                                        ; preds = %27, %30
  %.1.ph.ph = phi i1 [ false, %30 ], [ true, %27 ]
  call void @llvm.lifetime.end.p0(i64 16, ptr nonnull %5) #11
  call void @llvm.lifetime.end.p0(i64 16, ptr nonnull %4) #11
  br label %multirange_bsearch_match.exit

multirange_range_contains_bsearch_comparison.exit: ; preds = %.lr.ph.i, %31
  %.222.i = phi i32 [ %.02028.i, %31 ], [ %18, %.lr.ph.i ]
  %.219.i = phi i32 [ %32, %31 ], [ %.01729.i, %.lr.ph.i ]
  call void @llvm.lifetime.end.p0(i64 16, ptr nonnull %5) #11
  call void @llvm.lifetime.end.p0(i64 16, ptr nonnull %4) #11
  %33 = icmp ult i32 %.219.i, %.222.i
  br i1 %33, label %.lr.ph.i, label %multirange_bsearch_match.exit, !llvm.loop !33

multirange_bsearch_match.exit:                    ; preds = %multirange_range_contains_bsearch_comparison.exit, %.thread.i, %14, %10, %3
  %.0 = phi i1 [ true, %3 ], [ false, %10 ], [ %.1.ph.ph, %.thread.i ], [ false, %14 ], [ false, %multirange_range_contains_bsearch_comparison.exit ]
  call void @llvm.lifetime.end.p0(i64 1, ptr nonnull %7) #11
  call void @llvm.lifetime.end.p0(i64 32, ptr nonnull %6) #11
  ret i1 %.0
}